target datalayout = "e-m:e-p270:32:32-p271:32:32-p272:64:64-i64:64-i128:128-f80:128-n8:16:32:64-S128"
target triple = "x86_64-pc-linux-gnu"

%struct.SC_WireLoad_ = type { ptr, float, float, %struct.Vec_Int_t_, %struct.Vec_Flt_t_ }
%struct.Vec_Int_t_ = type { i32, i32, ptr }
%struct.Vec_Flt_t_ = type { i32, i32, ptr }

; Function Attrs: inlinehint nounwind uwtable
define internal ptr @Vec_FltAlloc(i32 noundef %0) #2 {
  %2 = alloca i32, align 4
  %3 = alloca ptr, align 8
  store i32 %0, ptr %2, align 4, !tbaa !8
  call void @llvm.lifetime.start.p0(i64 8, ptr %3) #7
  %4 = call noalias ptr @malloc(i64 noundef 16) #8
  store ptr %4, ptr %3, align 8, !tbaa !10
  %5 = load i32, ptr %2, align 4, !tbaa !8
  %6 = icmp sgt i32 %5, 0
  br i1 %6, label %7, label %11

7:                                                ; preds = %1
  %8 = load i32, ptr %2, align 4, !tbaa !8
  %9 = icmp slt i32 %8, 16
  br i1 %9, label %10, label %11

10:                                               ; preds = %7
  store i32 16, ptr %2, align 4, !tbaa !8
  br label %11

11:                                               ; preds = %10, %7, %1
  %12 = load ptr, ptr %3, align 8, !tbaa !10
  %13 = getelementptr inbounds nuw %struct.Vec_Flt_t_, ptr %12, i32 0, i32 1
  store i32 0, ptr %13, align 4, !tbaa !32
  %14 = load i32, ptr %2, align 4, !tbaa !8
  %15 = load ptr, ptr %3, align 8, !tbaa !10
  %16 = getelementptr inbounds nuw %struct.Vec_Flt_t_, ptr %15, i32 0, i32 0
  store i32 %14, ptr %16, align 8, !tbaa !99
  %17 = load ptr, ptr %3, align 8, !tbaa !10
  %18 = getelementptr inbounds nuw %struct.Vec_Flt_t_, ptr %17, i32 0, i32 0
  %19 = load i32, ptr %18, align 8, !tbaa !99
  %20 = icmp ne i32 %19, 0
  br i1 %20, label %21, label %28

21:                                               ; preds = %11
  %22 = load ptr, ptr %3, align 8, !tbaa !10
  %23 = getelementptr inbounds nuw %struct.Vec_Flt_t_, ptr %22, i32 0, i32 0
  %24 = load i32, ptr %23, align 8, !tbaa !99
  %25 = sext i32 %24 to i64
  %26 = mul i64 4, %25
  %27 = call noalias ptr @malloc(i64 noundef %26) #8
  br label %29

28:                                               ; preds = %11
  br label %29

29:                                               ; preds = %28, %21
  %30 = phi ptr [ %27, %21 ], [ null, %28 ]
  %31 = load ptr, ptr %3, align 8, !tbaa !10
  %32 = getelementptr inbounds nuw %struct.Vec_Flt_t_, ptr %31, i32 0, i32 2
  store ptr %30, ptr %32, align 8, !tbaa !33
  %33 = load ptr, ptr %3, align 8, !tbaa !10
  call void @llvm.lifetime.end.p0(i64 8, ptr %3) #7
  ret ptr %33
}

; Function Attrs: inlinehint nounwind uwtable
define internal i32 @Vec_FltSize(ptr noundef %0) #2 {
  %2 = alloca ptr, align 8
  store ptr %0, ptr %2, align 8, !tbaa !10
  %3 = load ptr, ptr %2, align 8, !tbaa !10
  %4 = getelementptr inbounds nuw %struct.Vec_Flt_t_, ptr %3, i32 0, i32 1
  %5 = load i32, ptr %4, align 4, !tbaa !32
  ret i32 %5
}

; Function Attrs: inlinehint nounwind uwtable
define internal void @Vec_FltWriteEntry(ptr noundef %0, i32 noundef %1, float noundef %2) #2 {
  %4 = alloca ptr, align 8
  %5 = alloca i32, align 4
  %6 = alloca float, align 4
  store ptr %0, ptr %4, align 8, !tbaa !10
  store i32 %1, ptr %5, align 4, !tbaa !8
  store float %2, ptr %6, align 4, !tbaa !23
  %7 = load float, ptr %6, align 4, !tbaa !23
  %8 = load ptr, ptr %4, align 8, !tbaa !10
  %9 = getelementptr inbounds nuw %struct.Vec_Flt_t_, ptr %8, i32 0, i32 2
  %10 = load ptr, ptr %9, align 8, !tbaa !33
  %11 = load i32, ptr %5, align 4, !tbaa !8
  %12 = sext i32 %11 to i64
  %13 = getelementptr inbounds float, ptr %10, i64 %12
  store float %7, ptr %13, align 4, !tbaa !23
  ret void
}

; Function Attrs: inlinehint nounwind uwtable
define internal float @Vec_FltEntry(ptr noundef %0, i32 noundef %1) #2 {
  %3 = alloca ptr, align 8
  %4 = alloca i32, align 4
  store ptr %0, ptr %3, align 8, !tbaa !10
  store i32 %1, ptr %4, align 4, !tbaa !8
  %5 = load ptr, ptr %3, align 8, !tbaa !10
  %6 = getelementptr inbounds nuw %struct.Vec_Flt_t_, ptr %5, i32 0, i32 2
  %7 = load ptr, ptr %6, align 8, !tbaa !33
  %8 = load i32, ptr %4, align 4, !tbaa !8
  %9 = sext i32 %8 to i64
  %10 = getelementptr inbounds float, ptr %7, i64 %9
  %11 = load float, ptr %10, align 4, !tbaa !23
  ret float %11
}

; Function Attrs: inlinehint nounwind uwtable
define internal ptr @Vec_FltStart(i32 noundef %0) #2 {
  %2 = alloca i32, align 4
  %3 = alloca ptr, align 8
  store i32 %0, ptr %2, align 4, !tbaa !8
  call void @llvm.lifetime.start.p0(i64 8, ptr %3) #7
  %4 = load i32, ptr %2, align 4, !tbaa !8
  %5 = call ptr @Vec_FltAlloc(i32 noundef %4)
  store ptr %5, ptr %3, align 8, !tbaa !10
  %6 = load i32, ptr %2, align 4, !tbaa !8
  %7 = load ptr, ptr %3, align 8, !tbaa !10
  %8 = getelementptr inbounds nuw %struct.Vec_Flt_t_, ptr %7, i32 0, i32 1
  store i32 %6, ptr %8, align 4, !tbaa !32
  %9 = load ptr, ptr %3, align 8, !tbaa !10
  %10 = getelementptr inbounds nuw %struct.Vec_Flt_t_, ptr %9, i32 0, i32 2
  %11 = load ptr, ptr %10, align 8, !tbaa !33
  %12 = load i32, ptr %2, align 4, !tbaa !8
  %13 = sext i32 %12 to i64
  %14 = mul i64 4, %13
  call void @llvm.memset.p0.i64(ptr align 4 %11, i8 0, i64 %14, i1 false)
  %15 = load ptr, ptr %3, align 8, !tbaa !10
  call void @llvm.lifetime.end.p0(i64 8, ptr %3) #7
  ret ptr %15
}

; Function Attrs: inlinehint nounwind uwtable
define internal i32 @Abc_MaxInt(i32 noundef %0, i32 noundef %1) #2 {
  %3 = alloca i32, align 4
  %4 = alloca i32, align 4
  store i32 %0, ptr %3, align 4, !tbaa !8
  store i32 %1, ptr %4, align 4, !tbaa !8
  %5 = load i32, ptr %3, align 4, !tbaa !8
  %6 = load i32, ptr %4, align 4, !tbaa !8
  %7 = icmp sgt i32 %5, %6
  br i1 %7, label %8, label %10

8:                                                ; preds = %2
  %9 = load i32, ptr %3, align 4, !tbaa !8
  br label %12

10:                                               ; preds = %2
  %11 = load i32, ptr %4, align 4, !tbaa !8
  br label %12

12:                                               ; preds = %10, %8
  %13 = phi i32 [ %9, %8 ], [ %11, %10 ]
  ret i32 %13
}

; Function Attrs: inlinehint nounwind uwtable
define internal i32 @Vec_IntEntry(ptr noundef %0, i32 noundef %1) #2 {
  %3 = alloca ptr, align 8
  %4 = alloca i32, align 4
  store ptr %0, ptr %3, align 8, !tbaa !28
  store i32 %1, ptr %4, align 4, !tbaa !8
  %5 = load ptr, ptr %3, align 8, !tbaa !28
  %6 = getelementptr inbounds nuw %struct.Vec_Int_t_, ptr %5, i32 0, i32 2
  %7 = load ptr, ptr %6, align 8, !tbaa !31
  %8 = load i32, ptr %4, align 4, !tbaa !8
  %9 = sext i32 %8 to i64
  %10 = getelementptr inbounds i32, ptr %7, i64 %9
  %11 = load i32, ptr %10, align 4, !tbaa !8
  ret i32 %11
}

; Function Attrs: inlinehint nounwind uwtable
define internal i32 @Vec_IntSize(ptr noundef %0) #2 {
  %2 = alloca ptr, align 8
  store ptr %0, ptr %2, align 8, !tbaa !28
  %3 = load ptr, ptr %2, align 8, !tbaa !28
  %4 = getelementptr inbounds nuw %struct.Vec_Int_t_, ptr %3, i32 0, i32 1
  %5 = load i32, ptr %4, align 4, !tbaa !30
  ret i32 %5
}

; Function Attrs: nounwind uwtable
define ptr @Abc_SclFindWireCaps(ptr noundef %0, i32 noundef %1) #0 {
  %3 = alloca ptr, align 8
  %4 = alloca ptr, align 8
  %5 = alloca i32, align 4
  %6 = alloca ptr, align 8
  %7 = alloca float, align 4
  %8 = alloca float, align 4
  %9 = alloca float, align 4
  %10 = alloca i32, align 4
  %11 = alloca i32, align 4
  %12 = alloca i32, align 4
  %13 = alloca i32, align 4
  %14 = alloca i32, align 4
  %15 = alloca i32, align 4
  store ptr %0, ptr %4, align 8, !tbaa !3
  store i32 %1, ptr %5, align 4, !tbaa !8
  call void @llvm.lifetime.start.p0(i64 8, ptr %6) #7
  store ptr null, ptr %6, align 8, !tbaa !10
  call void @llvm.lifetime.start.p0(i64 4, ptr %7) #7
  call void @llvm.lifetime.start.p0(i64 4, ptr %8) #7
  call void @llvm.lifetime.start.p0(i64 4, ptr %9) #7
  call void @llvm.lifetime.start.p0(i64 4, ptr %10) #7
  call void @llvm.lifetime.start.p0(i64 4, ptr %11) #7
  call void @llvm.lifetime.start.p0(i64 4, ptr %12) #7
  call void @llvm.lifetime.start.p0(i64 4, ptr %13) #7
  call void @llvm.lifetime.start.p0(i64 4, ptr %14) #7
  store i32 0, ptr %14, align 4, !tbaa !8
  store i32 0, ptr %10, align 4, !tbaa !8
  br label %16

16:                                               ; preds = %33, %2
  %17 = load i32, ptr %10, align 4, !tbaa !8
  %18 = load ptr, ptr %4, align 8, !tbaa !3
  %19 = getelementptr inbounds nuw %struct.SC_WireLoad_, ptr %18, i32 0, i32 3
  %20 = call i32 @Vec_IntSize(ptr noundef %19)
  %21 = icmp slt i32 %17, %20
  br i1 %21, label %22, label %27

22:                                               ; preds = %16
  %23 = load ptr, ptr %4, align 8, !tbaa !3
  %24 = getelementptr inbounds nuw %struct.SC_WireLoad_, ptr %23, i32 0, i32 3
  %25 = load i32, ptr %10, align 4, !tbaa !8
  %26 = call i32 @Vec_IntEntry(ptr noundef %24, i32 noundef %25)
  store i32 %26, ptr %13, align 4, !tbaa !8
  br label %27

27:                                               ; preds = %22, %16
  %28 = phi i1 [ false, %16 ], [ true, %22 ]
  br i1 %28, label %29, label %36

29:                                               ; preds = %27
  %30 = load i32, ptr %14, align 4, !tbaa !8
  %31 = load i32, ptr %13, align 4, !tbaa !8
  %32 = call i32 @Abc_MaxInt(i32 noundef %30, i32 noundef %31)
  store i32 %32, ptr %14, align 4, !tbaa !8
  br label %33

33:                                               ; preds = %29
  %34 = load i32, ptr %10, align 4, !tbaa !8
  %35 = add nsw i32 %34, 1
  store i32 %35, ptr %10, align 4, !tbaa !8
  br label %16, !llvm.loop !12

36:                                               ; preds = %27
  %37 = load i32, ptr %5, align 4, !tbaa !8
  %38 = load i32, ptr %14, align 4, !tbaa !8
  %39 = call i32 @Abc_MaxInt(i32 noundef %37, i32 noundef %38)
  %40 = add nsw i32 %39, 1
  %41 = call ptr @Vec_FltStart(i32 noundef %40)
  store ptr %41, ptr %6, align 8, !tbaa !10
  store i32 0, ptr %10, align 4, !tbaa !8
  br label %42

42:                                               ; preds = %66, %36
  %43 = load i32, ptr %10, align 4, !tbaa !8
  %44 = load ptr, ptr %4, align 8, !tbaa !3
  %45 = getelementptr inbounds nuw %struct.SC_WireLoad_, ptr %44, i32 0, i32 3
  %46 = call i32 @Vec_IntSize(ptr noundef %45)
  %47 = icmp slt i32 %43, %46
  br i1 %47, label %48, label %53

48:                                               ; preds = %42
  %49 = load ptr, ptr %4, align 8, !tbaa !3
  %50 = getelementptr inbounds nuw %struct.SC_WireLoad_, ptr %49, i32 0, i32 3
  %51 = load i32, ptr %10, align 4, !tbaa !8
  %52 = call i32 @Vec_IntEntry(ptr noundef %50, i32 noundef %51)
  store i32 %52, ptr %13, align 4, !tbaa !8
  br label %53

53:                                               ; preds = %48, %42
  %54 = phi i1 [ false, %42 ], [ true, %48 ]
  br i1 %54, label %55, label %69

55:                                               ; preds = %53
  %56 = load ptr, ptr %6, align 8, !tbaa !10
  %57 = load i32, ptr %13, align 4, !tbaa !8
  %58 = load ptr, ptr %4, align 8, !tbaa !3
  %59 = getelementptr inbounds nuw %struct.SC_WireLoad_, ptr %58, i32 0, i32 4
  %60 = load i32, ptr %10, align 4, !tbaa !8
  %61 = call float @Vec_FltEntry(ptr noundef %59, i32 noundef %60)
  %62 = load ptr, ptr %4, align 8, !tbaa !3
  %63 = getelementptr inbounds nuw %struct.SC_WireLoad_, ptr %62, i32 0, i32 1
  %64 = load float, ptr %63, align 8, !tbaa !14
  %65 = fmul float %61, %64
  call void @Vec_FltWriteEntry(ptr noundef %56, i32 noundef %57, float noundef %65)
  br label %66

66:                                               ; preds = %55
  %67 = load i32, ptr %10, align 4, !tbaa !8
  %68 = add nsw i32 %67, 1
  store i32 %68, ptr %10, align 4, !tbaa !8
  br label %42, !llvm.loop !22

69:                                               ; preds = %53
  %70 = load ptr, ptr %6, align 8, !tbaa !10
  %71 = call float @Vec_FltEntry(ptr noundef %70, i32 noundef 1)
  %72 = fcmp oeq float %71, 0.000000e+00
  br i1 %72, label %73, label %75

73:                                               ; preds = %69
  %74 = load ptr, ptr %6, align 8, !tbaa !10
  store ptr %74, ptr %3, align 8
  store i32 1, ptr %15, align 4
  br label %156

75:                                               ; preds = %69
  store i32 1, ptr %11, align 4, !tbaa !8
  %76 = load ptr, ptr %6, align 8, !tbaa !10
  %77 = call float @Vec_FltEntry(ptr noundef %76, i32 noundef 1)
  store float %77, ptr %7, align 4, !tbaa !23
  store i32 2, ptr %10, align 4, !tbaa !8
  br label %78

78:                                               ; preds = %124, %75
  %79 = load i32, ptr %10, align 4, !tbaa !8
  %80 = load ptr, ptr %6, align 8, !tbaa !10
  %81 = call i32 @Vec_FltSize(ptr noundef %80)
  %82 = icmp slt i32 %79, %81
  br i1 %82, label %83, label %87

83:                                               ; preds = %78
  %84 = load ptr, ptr %6, align 8, !tbaa !10
  %85 = load i32, ptr %10, align 4, !tbaa !8
  %86 = call float @Vec_FltEntry(ptr noundef %84, i32 noundef %85)
  store float %86, ptr %8, align 4, !tbaa !23
  br label %87

87:                                               ; preds = %83, %78
  %88 = phi i1 [ false, %78 ], [ true, %83 ]
  br i1 %88, label %89, label %127

89:                                               ; preds = %87
  %90 = load float, ptr %8, align 4, !tbaa !23
  %91 = fcmp oeq float %90, 0.000000e+00
  br i1 %91, label %92, label %93

92:                                               ; preds = %89
  br label %124

93:                                               ; preds = %89
  %94 = load float, ptr %8, align 4, !tbaa !23
  %95 = load float, ptr %7, align 4, !tbaa !23
  %96 = fsub float %94, %95
  %97 = load i32, ptr %10, align 4, !tbaa !8
  %98 = load i32, ptr %11, align 4, !tbaa !8
  %99 = sub nsw i32 %97, %98
  %100 = sitofp i32 %99 to float
  %101 = fdiv float %96, %100
  store float %101, ptr %9, align 4, !tbaa !23
  %102 = load i32, ptr %11, align 4, !tbaa !8
  %103 = add nsw i32 %102, 1
  store i32 %103, ptr %12, align 4, !tbaa !8
  br label %104

104:                                              ; preds = %118, %93
  %105 = load i32, ptr %12, align 4, !tbaa !8
  %106 = load i32, ptr %10, align 4, !tbaa !8
  %107 = icmp slt i32 %105, %106
  br i1 %107, label %108, label %121

108:                                              ; preds = %104
  %109 = load ptr, ptr %6, align 8, !tbaa !10
  %110 = load i32, ptr %12, align 4, !tbaa !8
  %111 = load float, ptr %7, align 4, !tbaa !23
  %112 = load float, ptr %9, align 4, !tbaa !23
  %113 = load i32, ptr %12, align 4, !tbaa !8
  %114 = load i32, ptr %11, align 4, !tbaa !8
  %115 = sub nsw i32 %113, %114
  %116 = sitofp i32 %115 to float
  %117 = call float @llvm.fmuladd.f32(float %112, float %116, float %111)
  call void @Vec_FltWriteEntry(ptr noundef %109, i32 noundef %110, float noundef %117)
  br label %118

118:                                              ; preds = %108
  %119 = load i32, ptr %12, align 4, !tbaa !8
  %120 = add nsw i32 %119, 1
  store i32 %120, ptr %12, align 4, !tbaa !8
  br label %104, !llvm.loop !24

121:                                              ; preds = %104
  %122 = load float, ptr %8, align 4, !tbaa !23
  store float %122, ptr %7, align 4, !tbaa !23
  %123 = load i32, ptr %10, align 4, !tbaa !8
  store i32 %123, ptr %11, align 4, !tbaa !8
  br label %124

124:                                              ; preds = %121, %92
  %125 = load i32, ptr %10, align 4, !tbaa !8
  %126 = add nsw i32 %125, 1
  store i32 %126, ptr %10, align 4, !tbaa !8
  br label %78, !llvm.loop !25

127:                                              ; preds = %87
  %128 = load ptr, ptr %4, align 8, !tbaa !3
  %129 = getelementptr inbounds nuw %struct.SC_WireLoad_, ptr %128, i32 0, i32 1
  %130 = load float, ptr %129, align 8, !tbaa !14
  %131 = load ptr, ptr %4, align 8, !tbaa !3
  %132 = getelementptr inbounds nuw %struct.SC_WireLoad_, ptr %131, i32 0, i32 2
  %133 = load float, ptr %132, align 4, !tbaa !26
  %134 = fmul float %130, %133
  store float %134, ptr %9, align 4, !tbaa !23
  %135 = load i32, ptr %11, align 4, !tbaa !8
  %136 = add nsw i32 %135, 1
  store i32 %136, ptr %12, align 4, !tbaa !8
  br label %137

137:                                              ; preds = %151, %127
  %138 = load i32, ptr %12, align 4, !tbaa !8
  %139 = load i32, ptr %10, align 4, !tbaa !8
  %140 = icmp slt i32 %138, %139
  br i1 %140, label %141, label %154

141:                                              ; preds = %137
  %142 = load ptr, ptr %6, align 8, !tbaa !10
  %143 = load i32, ptr %12, align 4, !tbaa !8
  %144 = load float, ptr %7, align 4, !tbaa !23
  %145 = load float, ptr %9, align 4, !tbaa !23
  %146 = load i32, ptr %12, align 4, !tbaa !8
  %147 = load i32, ptr %11, align 4, !tbaa !8
  %148 = sub nsw i32 %146, %147
  %149 = sitofp i32 %148 to float
  %150 = call float @llvm.fmuladd.f32(float %145, float %149, float %144)
  call void @Vec_FltWriteEntry(ptr noundef %142, i32 noundef %143, float noundef %150)
  br label %151

151:                                              ; preds = %141
  %152 = load i32, ptr %12, align 4, !tbaa !8
  %153 = add nsw i32 %152, 1
  store i32 %153, ptr %12, align 4, !tbaa !8
  br label %137, !llvm.loop !27

154:                                              ; preds = %137
  %155 = load ptr, ptr %6, align 8, !tbaa !10
  store ptr %155, ptr %3, align 8
  store i32 1, ptr %15, align 4
  br label %156

156:                                              ; preds = %154, %73
  call void @llvm.lifetime.end.p0(i64 4, ptr %14) #7
  call void @llvm.lifetime.end.p0(i64 4, ptr %13) #7
  call void @llvm.lifetime.end.p0(i64 4, ptr %12) #7
  call void @llvm.lifetime.end.p0(i64 4, ptr %11) #7
  call void @llvm.lifetime.end.p0(i64 4, ptr %10) #7
  call void @llvm.lifetime.end.p0(i64 4, ptr %9) #7
  call void @llvm.lifetime.end.p0(i64 4, ptr %8) #7
  call void @llvm.lifetime.end.p0(i64 4, ptr %7) #7
  call void @llvm.lifetime.end.p0(i64 8, ptr %6) #7
  %157 = load ptr, ptr %3, align 8
  ret ptr %157
}