; Function Attrs: nofree nounwind memory(readwrite, argmem: read) uwtable
define noalias noundef ptr @Abc_SclFindWireCaps(ptr noundef readonly captures(none) %0, i32 noundef %1) local_unnamed_addr #0 {
  %3 = getelementptr i8, ptr %0, i64 20
  %.val = load i32, ptr %3, align 4, !tbaa !3
  %4 = icmp sgt i32 %.val, 0
  br i1 %4, label %.lr.ph, label %Vec_FltStart.exit

.lr.ph:                                           ; preds = %2
  %5 = getelementptr i8, ptr %0, i64 24
  %.val71 = load ptr, ptr %5, align 8, !tbaa !10
  %wide.trip.count = zext nneg i32 %.val to i64
  br label %6

6:                                                ; preds = %.lr.ph, %6
  %indvars.iv = phi i64 [ 0, %.lr.ph ], [ %indvars.iv.next, %6 ]
  %.083 = phi i32 [ 0, %.lr.ph ], [ %9, %6 ]
  %7 = getelementptr inbounds nuw i32, ptr %.val71, i64 %indvars.iv
  %8 = load i32, ptr %7, align 4, !tbaa !11
  %9 = tail call noundef i32 @llvm.smax.i32(i32 %.083, i32 %8)
  %indvars.iv.next = add nuw nsw i64 %indvars.iv, 1
  %exitcond.not = icmp eq i64 %indvars.iv.next, %wide.trip.count
  br i1 %exitcond.not, label %Vec_FltStart.exit, label %6, !llvm.loop !12

Vec_FltStart.exit:                                ; preds = %6, %2
  %.0.lcssa = phi i32 [ 0, %2 ], [ %9, %6 ]
  %10 = tail call noundef i32 @llvm.smax.i32(i32 %1, i32 %.0.lcssa)
  %11 = add nuw i32 %10, 1
  %12 = tail call noalias dereferenceable_or_null(16) ptr @malloc(i64 noundef 16) #12
  %or.cond.i.i = icmp ult i32 %10, 15
  %spec.store.select.i.i = select i1 %or.cond.i.i, i32 16, i32 %11
  store i32 %spec.store.select.i.i, ptr %12, align 8, !tbaa !14
  %13 = sext i32 %spec.store.select.i.i to i64
  %14 = shl nsw i64 %13, 2
  %15 = tail call noalias ptr @malloc(i64 noundef %14) #12
  %16 = getelementptr inbounds nuw i8, ptr %12, i64 4
  %17 = getelementptr inbounds nuw i8, ptr %12, i64 8
  store ptr %15, ptr %17, align 8, !tbaa !17
  store i32 %11, ptr %16, align 4, !tbaa !18
  %18 = sext i32 %11 to i64
  %19 = shl nsw i64 %18, 2
  tail call void @llvm.memset.p0.i64(ptr noundef nonnull align 4 dereferenceable(1) %15, i8 0, i64 %19, i1 false)
  br i1 %4, label %.lr.ph86, label %.critedge2

.lr.ph86:                                         ; preds = %Vec_FltStart.exit
  %20 = getelementptr i8, ptr %0, i64 24
  %.val72 = load ptr, ptr %20, align 8, !tbaa !10
  %21 = getelementptr i8, ptr %0, i64 40
  %.val73 = load ptr, ptr %21, align 8, !tbaa !17
  %22 = getelementptr inbounds nuw i8, ptr %0, i64 8
  %23 = load float, ptr %22, align 8, !tbaa !19
  %wide.trip.count106 = zext nneg i32 %.val to i64
  br label %24

24:                                               ; preds = %.lr.ph86, %24
  %indvars.iv103 = phi i64 [ 0, %.lr.ph86 ], [ %indvars.iv.next104, %24 ]
  %25 = getelementptr inbounds nuw i32, ptr %.val72, i64 %indvars.iv103
  %26 = load i32, ptr %25, align 4, !tbaa !11
  %27 = getelementptr inbounds nuw float, ptr %.val73, i64 %indvars.iv103
  %28 = load float, ptr %27, align 4, !tbaa !23
  %29 = fmul float %28, %23
  %30 = sext i32 %26 to i64
  %31 = getelementptr inbounds float, ptr %15, i64 %30
  store float %29, ptr %31, align 4, !tbaa !23
  %indvars.iv.next104 = add nuw nsw i64 %indvars.iv103, 1
  %exitcond107.not = icmp eq i64 %indvars.iv.next104, %wide.trip.count106
  br i1 %exitcond107.not, label %.critedge2, label %24, !llvm.loop !24

.critedge2:                                       ; preds = %24, %Vec_FltStart.exit
  %32 = getelementptr inbounds nuw i8, ptr %15, i64 4
  %33 = load float, ptr %32, align 4, !tbaa !23
  %34 = fcmp oeq float %33, 0.000000e+00
  br i1 %34, label %.loopexit, label %.preheader

.preheader:                                       ; preds = %.critedge2
  %.not90 = icmp slt i32 %10, 2
  br i1 %.not90, label %.critedge4, label %.lr.ph94.preheader

.lr.ph94.preheader:                               ; preds = %.preheader
  %wide.trip.count116 = zext i32 %11 to i64
  br label %.lr.ph94

.lr.ph94:                                         ; preds = %.lr.ph94.preheader, %.loopexit81
  %indvars.iv113 = phi i64 [ 2, %.lr.ph94.preheader ], [ %indvars.iv.next114, %.loopexit81 ]
  %.06293 = phi i32 [ 1, %.lr.ph94.preheader ], [ %.163, %.loopexit81 ]
  %.06791 = phi float [ %33, %.lr.ph94.preheader ], [ %.168, %.loopexit81 ]
  %35 = getelementptr inbounds nuw float, ptr %15, i64 %indvars.iv113
  %36 = load float, ptr %35, align 4, !tbaa !23
  %37 = fcmp oeq float %36, 0.000000e+00
  br i1 %37, label %.loopexit81, label %38

38:                                               ; preds = %.lr.ph94
  %39 = fsub float %36, %.06791
  %40 = trunc nuw nsw i64 %indvars.iv113 to i32
  %41 = sub nsw i32 %40, %.06293
  %42 = sitofp i32 %41 to float
  %43 = fdiv float %39, %42
  %.06187 = add nuw nsw i32 %.06293, 1
  %44 = zext i32 %.06187 to i64
  %45 = icmp samesign ugt i64 %indvars.iv113, %44
  br i1 %45, label %.lr.ph89.preheader, label %.loopexit81

.lr.ph89.preheader:                               ; preds = %38
  %46 = zext i32 %.06293 to i64
  %47 = add nuw nsw i64 %46, 1
  br label %.lr.ph89

.lr.ph89:                                         ; preds = %.lr.ph89.preheader, %.lr.ph89
  %indvars.iv108 = phi i64 [ %47, %.lr.ph89.preheader ], [ %indvars.iv.next109, %.lr.ph89 ]
  %48 = trunc i64 %indvars.iv108 to i32
  %49 = sub i32 %48, %.06293
  %50 = sitofp i32 %49 to float
  %51 = tail call float @llvm.fmuladd.f32(float %43, float %50, float %.06791)
  %52 = getelementptr inbounds nuw float, ptr %15, i64 %indvars.iv108
  store float %51, ptr %52, align 4, !tbaa !23
  %indvars.iv.next109 = add nuw nsw i64 %indvars.iv108, 1
  %exitcond112.not = icmp eq i64 %indvars.iv.next109, %indvars.iv113
  br i1 %exitcond112.not, label %.loopexit81, label %.lr.ph89, !llvm.loop !25

.loopexit81:                                      ; preds = %.lr.ph89, %38, %.lr.ph94
  %.168 = phi float [ %.06791, %.lr.ph94 ], [ %36, %38 ], [ %36, %.lr.ph89 ]
  %.163 = phi i32 [ %.06293, %.lr.ph94 ], [ %40, %38 ], [ %40, %.lr.ph89 ]
  %indvars.iv.next114 = add nuw nsw i64 %indvars.iv113, 1
  %exitcond117.not = icmp eq i64 %indvars.iv.next114, %wide.trip.count116
  br i1 %exitcond117.not, label %.critedge4, label %.lr.ph94, !llvm.loop !26

.critedge4:                                       ; preds = %.loopexit81, %.preheader
  %.067.lcssa = phi float [ %33, %.preheader ], [ %.168, %.loopexit81 ]
  %.2.lcssa = phi i32 [ 2, %.preheader ], [ %11, %.loopexit81 ]
  %.062.lcssa = phi i32 [ 1, %.preheader ], [ %.163, %.loopexit81 ]
  %53 = getelementptr inbounds nuw i8, ptr %0, i64 8
  %54 = load float, ptr %53, align 8, !tbaa !19
  %55 = getelementptr inbounds nuw i8, ptr %0, i64 12
  %56 = load float, ptr %55, align 4, !tbaa !27
  %57 = fmul float %54, %56
  %.198 = add nuw nsw i32 %.062.lcssa, 1
  %58 = icmp samesign ult i32 %.198, %.2.lcssa
  br i1 %58, label %.lr.ph100.preheader, label %.loopexit

.lr.ph100.preheader:                              ; preds = %.critedge4
  %59 = zext i32 %.062.lcssa to i64
  %60 = add nuw nsw i64 %59, 1
  %wide.trip.count121 = zext i32 %.2.lcssa to i64
  br label %.lr.ph100

.lr.ph100:                                        ; preds = %.lr.ph100.preheader, %.lr.ph100
  %indvars.iv118 = phi i64 [ %60, %.lr.ph100.preheader ], [ %indvars.iv.next119, %.lr.ph100 ]
  %61 = trunc i64 %indvars.iv118 to i32
  %62 = sub i32 %61, %.062.lcssa
  %63 = sitofp i32 %62 to float
  %64 = tail call float @llvm.fmuladd.f32(float %57, float %63, float %.067.lcssa)
  %65 = getelementptr inbounds nuw float, ptr %15, i64 %indvars.iv118
  store float %64, ptr %65, align 4, !tbaa !23
  %indvars.iv.next119 = add nuw nsw i64 %indvars.iv118, 1
  %exitcond122.not = icmp eq i64 %indvars.iv.next119, %wide.trip.count121
  br i1 %exitcond122.not, label %.loopexit, label %.lr.ph100, !llvm.loop !28

.loopexit:                                        ; preds = %.lr.ph100, %.critedge4, %.critedge2
  ret ptr %12
}